target datalayout = "e-m:e-p270:32:32-p271:32:32-p272:64:64-i64:64-i128:128-f80:128-n8:16:32:64-S128"
target triple = "x86_64-pc-linux-gnu"

%struct.ggml_backend_buffer_type = type { %struct.ggml_backend_buffer_type_i, ptr, ptr }
%struct.ggml_backend_buffer_type_i = type { ptr, ptr, ptr, ptr, ptr, ptr }
%struct.ggml_backend = type { ptr, %struct.ggml_backend_i, ptr, ptr }
%struct.ggml_backend_i = type { ptr, ptr, ptr, ptr, ptr, ptr, ptr, ptr, ptr, ptr, ptr, ptr, ptr }
%struct.ggml_backend_device = type { %struct.ggml_backend_device_i, ptr, ptr }
%struct.ggml_backend_device_i = type { ptr, ptr, ptr, ptr, ptr, ptr, ptr, ptr, ptr, ptr, ptr, ptr, ptr, ptr, ptr }

; Function Attrs: mustprogress uwtable
define ptr @ggml_backend_dev_buffer_type(ptr noundef %0) #0 {
  %2 = alloca ptr, align 8
  store ptr %0, ptr %2, align 8, !tbaa !65
  %3 = load ptr, ptr %2, align 8, !tbaa !65
  %4 = getelementptr inbounds nuw %struct.ggml_backend_device, ptr %3, i32 0, i32 0
  %5 = getelementptr inbounds nuw %struct.ggml_backend_device_i, ptr %4, i32 0, i32 6
  %6 = load ptr, ptr %5, align 8, !tbaa !66
  %7 = load ptr, ptr %2, align 8, !tbaa !65
  %8 = call noundef ptr %6(ptr noundef %7)
  ret ptr %8
}

; Function Attrs: mustprogress uwtable
define i64 @ggml_backend_buft_get_max_size(ptr noundef %0) #0 {
  %2 = alloca i64, align 8
  %3 = alloca ptr, align 8
  store ptr %0, ptr %3, align 8, !tbaa !3
  %4 = load ptr, ptr %3, align 8, !tbaa !3
  %5 = getelementptr inbounds nuw %struct.ggml_backend_buffer_type, ptr %4, i32 0, i32 0
  %6 = getelementptr inbounds nuw %struct.ggml_backend_buffer_type_i, ptr %5, i32 0, i32 3
  %7 = load ptr, ptr %6, align 8, !tbaa !27
  %8 = icmp ne ptr %7, null
  br i1 %8, label %9, label %16

9:                                                ; preds = %1
  %10 = load ptr, ptr %3, align 8, !tbaa !3
  %11 = getelementptr inbounds nuw %struct.ggml_backend_buffer_type, ptr %10, i32 0, i32 0
  %12 = getelementptr inbounds nuw %struct.ggml_backend_buffer_type_i, ptr %11, i32 0, i32 3
  %13 = load ptr, ptr %12, align 8, !tbaa !27
  %14 = load ptr, ptr %3, align 8, !tbaa !3
  %15 = call noundef i64 %13(ptr noundef %14)
  store i64 %15, ptr %2, align 8
  br label %17

16:                                               ; preds = %1
  store i64 -1, ptr %2, align 8
  br label %17

17:                                               ; preds = %16, %9
  %18 = load i64, ptr %2, align 8
  ret i64 %18
}

; Function Attrs: mustprogress uwtable
define ptr @ggml_backend_get_default_buffer_type(ptr noundef %0) #0 {
  %2 = alloca ptr, align 8
  store ptr %0, ptr %2, align 8, !tbaa !56
  %3 = load ptr, ptr %2, align 8, !tbaa !56
  %4 = getelementptr inbounds nuw %struct.ggml_backend, ptr %3, i32 0, i32 2
  %5 = load ptr, ptr %4, align 8, !tbaa !64
  %6 = call ptr @ggml_backend_dev_buffer_type(ptr noundef %5)
  ret ptr %6
}

; Function Attrs: mustprogress uwtable
define i64 @ggml_backend_get_max_size(ptr noundef %0) #0 {
  %2 = alloca ptr, align 8
  store ptr %0, ptr %2, align 8, !tbaa !56
  %3 = load ptr, ptr %2, align 8, !tbaa !56
  %4 = call ptr @ggml_backend_get_default_buffer_type(ptr noundef %3)
  %5 = call i64 @ggml_backend_buft_get_max_size(ptr noundef %4)
  ret i64 %5
}