; Function Attrs: mustprogress uwtable
define noundef i64 @ggml_backend_get_max_size(ptr noundef readonly captures(none) %0) local_unnamed_addr #0 {
  %2 = getelementptr inbounds nuw i8, ptr %0, i64 112
  %3 = load ptr, ptr %2, align 8, !tbaa !55
  %4 = getelementptr inbounds nuw i8, ptr %3, i64 48
  %5 = load ptr, ptr %4, align 8, !tbaa !56
  %6 = tail call noundef ptr %5(ptr noundef %3)
  %7 = getelementptr inbounds nuw i8, ptr %6, i64 24
  %8 = load ptr, ptr %7, align 8, !tbaa !23
  %.not.i = icmp eq ptr %8, null
  br i1 %.not.i, label %ggml_backend_buft_get_max_size.exit, label %9

9:                                                ; preds = %1
  %10 = tail call noundef i64 %8(ptr noundef nonnull %6)
  br label %ggml_backend_buft_get_max_size.exit

ggml_backend_buft_get_max_size.exit:              ; preds = %1, %9
  %.0.i = phi i64 [ %10, %9 ], [ -1, %1 ]
  ret i64 %.0.i
}